target datalayout = "e-m:e-p270:32:32-p271:32:32-p272:64:64-i64:64-i128:128-f80:128-n8:16:32:64-S128"
target triple = "x86_64-pc-linux-gnu"

; Function Attrs: nounwind uwtable
define dso_local i64 @xpread(i32 noundef %0, ptr noundef %1, i64 noundef %2, i64 noundef %3) #0 {
  %5 = alloca i32, align 4
  %6 = alloca ptr, align 8
  %7 = alloca i64, align 8
  %8 = alloca i64, align 8
  %9 = alloca i64, align 8
  store i32 %0, ptr %5, align 4, !tbaa !11
  store ptr %1, ptr %6, align 8, !tbaa !13
  store i64 %2, ptr %7, align 8, !tbaa !9
  store i64 %3, ptr %8, align 8, !tbaa !9
  call void @llvm.lifetime.start.p0(i64 8, ptr %9) #13
  %10 = load i64, ptr %7, align 8, !tbaa !9
  %11 = icmp ugt i64 %10, 8388608
  br i1 %11, label %12, label %13

12:                                               ; preds = %4
  store i64 8388608, ptr %7, align 8, !tbaa !9
  br label %13

13:                                               ; preds = %12, %4
  br label %14

14:                                               ; preds = %31, %13
  br label %15

15:                                               ; preds = %14
  %16 = load i32, ptr %5, align 4, !tbaa !11
  %17 = load ptr, ptr %6, align 8, !tbaa !13
  %18 = load i64, ptr %7, align 8, !tbaa !9
  %19 = load i64, ptr %8, align 8, !tbaa !9
  %20 = call i64 @pread64(i32 noundef %16, ptr noundef %17, i64 noundef %18, i64 noundef %19)
  store i64 %20, ptr %9, align 8, !tbaa !9
  %21 = load i64, ptr %9, align 8, !tbaa !9
  %22 = icmp slt i64 %21, 0
  br i1 %22, label %23, label %32

23:                                               ; preds = %15
  %24 = call ptr @__errno_location() #19
  %25 = load i32, ptr %24, align 4, !tbaa !11
  %26 = icmp eq i32 %25, 11
  br i1 %26, label %31, label %27

27:                                               ; preds = %23
  %28 = call ptr @__errno_location() #19
  %29 = load i32, ptr %28, align 4, !tbaa !11
  %30 = icmp eq i32 %29, 4
  br i1 %30, label %31, label %32

31:                                               ; preds = %27, %23
  br label %14

32:                                               ; preds = %27, %15
  %33 = load i64, ptr %9, align 8, !tbaa !9
  call void @llvm.lifetime.end.p0(i64 8, ptr %9) #13
  ret i64 %33
}

; Function Attrs: nounwind uwtable
define dso_local i64 @pread_in_full(i32 noundef %0, ptr noundef %1, i64 noundef %2, i64 noundef %3) #0 {
  %5 = alloca i64, align 8
  %6 = alloca i32, align 4
  %7 = alloca ptr, align 8
  %8 = alloca i64, align 8
  %9 = alloca i64, align 8
  %10 = alloca ptr, align 8
  %11 = alloca i64, align 8
  %12 = alloca i64, align 8
  %13 = alloca i32, align 4
  store i32 %0, ptr %6, align 4, !tbaa !11
  store ptr %1, ptr %7, align 8, !tbaa !13
  store i64 %2, ptr %8, align 8, !tbaa !9
  store i64 %3, ptr %9, align 8, !tbaa !9
  call void @llvm.lifetime.start.p0(i64 8, ptr %10) #13
  %14 = load ptr, ptr %7, align 8, !tbaa !13
  store ptr %14, ptr %10, align 8, !tbaa !4
  call void @llvm.lifetime.start.p0(i64 8, ptr %11) #13
  store i64 0, ptr %11, align 8, !tbaa !9
  br label %15

15:                                               ; preds = %47, %4
  %16 = load i64, ptr %8, align 8, !tbaa !9
  %17 = icmp ugt i64 %16, 0
  br i1 %17, label %18, label %48

18:                                               ; preds = %15
  call void @llvm.lifetime.start.p0(i64 8, ptr %12) #13
  %19 = load i32, ptr %6, align 4, !tbaa !11
  %20 = load ptr, ptr %10, align 8, !tbaa !4
  %21 = load i64, ptr %8, align 8, !tbaa !9
  %22 = load i64, ptr %9, align 8, !tbaa !9
  %23 = call i64 @xpread(i32 noundef %19, ptr noundef %20, i64 noundef %21, i64 noundef %22)
  store i64 %23, ptr %12, align 8, !tbaa !9
  %24 = load i64, ptr %12, align 8, !tbaa !9
  %25 = icmp slt i64 %24, 0
  br i1 %25, label %26, label %27

26:                                               ; preds = %18
  store i64 -1, ptr %5, align 8
  store i32 1, ptr %13, align 4
  br label %45

27:                                               ; preds = %18
  %28 = load i64, ptr %12, align 8, !tbaa !9
  %29 = icmp eq i64 %28, 0
  br i1 %29, label %30, label %32

30:                                               ; preds = %27
  %31 = load i64, ptr %11, align 8, !tbaa !9
  store i64 %31, ptr %5, align 8
  store i32 1, ptr %13, align 4
  br label %45

32:                                               ; preds = %27
  %33 = load i64, ptr %12, align 8, !tbaa !9
  %34 = load i64, ptr %8, align 8, !tbaa !9
  %35 = sub i64 %34, %33
  store i64 %35, ptr %8, align 8, !tbaa !9
  %36 = load i64, ptr %12, align 8, !tbaa !9
  %37 = load ptr, ptr %10, align 8, !tbaa !4
  %38 = getelementptr inbounds i8, ptr %37, i64 %36
  store ptr %38, ptr %10, align 8, !tbaa !4
  %39 = load i64, ptr %12, align 8, !tbaa !9
  %40 = load i64, ptr %11, align 8, !tbaa !9
  %41 = add nsw i64 %40, %39
  store i64 %41, ptr %11, align 8, !tbaa !9
  %42 = load i64, ptr %12, align 8, !tbaa !9
  %43 = load i64, ptr %9, align 8, !tbaa !9
  %44 = add nsw i64 %43, %42
  store i64 %44, ptr %9, align 8, !tbaa !9
  store i32 0, ptr %13, align 4
  br label %45

45:                                               ; preds = %32, %30, %26
  call void @llvm.lifetime.end.p0(i64 8, ptr %12) #13
  %46 = load i32, ptr %13, align 4
  switch i32 %46, label %50 [
    i32 0, label %47
  ]

47:                                               ; preds = %45
  br label %15, !llvm.loop !23

48:                                               ; preds = %15
  %49 = load i64, ptr %11, align 8, !tbaa !9
  store i64 %49, ptr %5, align 8
  store i32 1, ptr %13, align 4
  br label %50

50:                                               ; preds = %48, %45
  call void @llvm.lifetime.end.p0(i64 8, ptr %11) #13
  call void @llvm.lifetime.end.p0(i64 8, ptr %10) #13
  %51 = load i64, ptr %5, align 8
  ret i64 %51
}