; Function Attrs: nounwind uwtable
define dso_local i64 @pread_in_full(i32 noundef %0, ptr noundef %1, i64 noundef %2, i64 noundef %3) local_unnamed_addr #0 {
  %.not41 = icmp eq i64 %2, 0
  br i1 %.not41, label %xpread.exit.thread32, label %.lr.ph

.lr.ph:                                           ; preds = %4, %xpread.exit
  %.02045 = phi i64 [ %16, %xpread.exit ], [ 0, %4 ]
  %.02244 = phi ptr [ %15, %xpread.exit ], [ %1, %4 ]
  %.02443 = phi i64 [ %17, %xpread.exit ], [ %3, %4 ]
  %.02642 = phi i64 [ %14, %xpread.exit ], [ %2, %4 ]
  %spec.store.select.i = tail call i64 @llvm.umin.i64(i64 %.02642, i64 8388608)
  %5 = tail call i64 @pread64(i32 noundef %0, ptr noundef %.02244, i64 noundef %spec.store.select.i, i64 noundef %.02443) #20
  %6 = icmp slt i64 %5, 0
  br i1 %6, label %.lr.ph.i, label %.loopexit

.lr.ph.i:                                         ; preds = %.lr.ph
  %7 = tail call ptr @__errno_location() #26
  br label %8

8:                                                ; preds = %10, %.lr.ph.i
  %9 = load i32, ptr %7, align 4, !tbaa !9
  switch i32 %9, label %xpread.exit.thread32 [
    i32 11, label %10
    i32 4, label %10
  ]

10:                                               ; preds = %8, %8
  %11 = tail call i64 @pread64(i32 noundef %0, ptr noundef %.02244, i64 noundef %spec.store.select.i, i64 noundef %.02443) #20
  %12 = icmp slt i64 %11, 0
  br i1 %12, label %8, label %.loopexit

.loopexit:                                        ; preds = %10, %.lr.ph
  %.lcssa.i.ph = phi i64 [ %5, %.lr.ph ], [ %11, %10 ]
  %13 = icmp eq i64 %.lcssa.i.ph, 0
  br i1 %13, label %xpread.exit.thread32, label %xpread.exit

xpread.exit:                                      ; preds = %.loopexit
  %14 = sub i64 %.02642, %.lcssa.i.ph
  %15 = getelementptr inbounds nuw i8, ptr %.02244, i64 %.lcssa.i.ph
  %16 = add nuw nsw i64 %.lcssa.i.ph, %.02045
  %17 = add nsw i64 %.lcssa.i.ph, %.02443
  %.not = icmp eq i64 %14, 0
  br i1 %.not, label %xpread.exit.thread32, label %.lr.ph, !llvm.loop !18

xpread.exit.thread32:                             ; preds = %xpread.exit, %.loopexit, %8, %4
  %.2 = phi i64 [ 0, %4 ], [ -1, %8 ], [ %16, %xpread.exit ], [ %.02045, %.loopexit ]
  ret i64 %.2
}